target datalayout = "e-m:e-p270:32:32-p271:32:32-p272:64:64-i64:64-i128:128-f80:128-n8:16:32:64-S128"
target triple = "x86_64-pc-linux-gnu"

%struct.AVChannelLayout = type { i32, i32, %union.anon.1, ptr }
%union.anon.1 = type { i64 }
%struct.AVFilterLink = type { ptr, ptr, ptr, ptr, i32, i32, i32, i32, %struct.AVRational, i32, i32, i32, %struct.AVChannelLayout, %struct.AVRational, ptr, i32, %struct.AVFilterFormatsConfig, %struct.AVFilterFormatsConfig }
%struct.AVRational = type { i32, i32 }
%struct.AVFilterFormatsConfig = type { ptr, ptr, ptr, ptr, ptr }
%struct.AVFilterContext = type { ptr, ptr, ptr, ptr, ptr, i32, ptr, ptr, i32, ptr, ptr, i32, i32, ptr, ptr, ptr, ptr, i32, ptr, i32, i32 }
%struct.ReplayGainContext = type { ptr, [12000 x i32], float, float, i32, i32, ptr, ptr, ptr, ptr, [256 x float], [256 x float], [256 x float], [256 x float] }

@.str.7 = private unnamed_addr constant [23 x i8] c"track_gain = %+.2f dB\0A\00", align 1
@.str.8 = private unnamed_addr constant [19 x i8] c"track_peak = %.6f\0A\00", align 1

; Function Attrs: alwaysinline nounwind willreturn memory(none) uwtable
define internal float @av_clipf_c(float noundef %0, float noundef %1, float noundef %2) #4 {
  %4 = alloca float, align 4
  %5 = alloca float, align 4
  %6 = alloca float, align 4
  store float %0, ptr %4, align 4, !tbaa !70
  store float %1, ptr %5, align 4, !tbaa !70
  store float %2, ptr %6, align 4, !tbaa !70
  %7 = load float, ptr %4, align 4, !tbaa !70
  %8 = load float, ptr %5, align 4, !tbaa !70
  %9 = fcmp nsz ogt float %7, %8
  br i1 %9, label %10, label %12

10:                                               ; preds = %3
  %11 = load float, ptr %4, align 4, !tbaa !70
  br label %14

12:                                               ; preds = %3
  %13 = load float, ptr %5, align 4, !tbaa !70
  br label %14

14:                                               ; preds = %12, %10
  %15 = phi nsz float [ %11, %10 ], [ %13, %12 ]
  %16 = load float, ptr %6, align 4, !tbaa !70
  %17 = fcmp nsz ogt float %15, %16
  br i1 %17, label %18, label %20

18:                                               ; preds = %14
  %19 = load float, ptr %6, align 4, !tbaa !70
  br label %30

20:                                               ; preds = %14
  %21 = load float, ptr %4, align 4, !tbaa !70
  %22 = load float, ptr %5, align 4, !tbaa !70
  %23 = fcmp nsz ogt float %21, %22
  br i1 %23, label %24, label %26

24:                                               ; preds = %20
  %25 = load float, ptr %4, align 4, !tbaa !70
  br label %28

26:                                               ; preds = %20
  %27 = load float, ptr %5, align 4, !tbaa !70
  br label %28

28:                                               ; preds = %26, %24
  %29 = phi nsz float [ %25, %24 ], [ %27, %26 ]
  br label %30

30:                                               ; preds = %28, %18
  %31 = phi nsz float [ %19, %18 ], [ %29, %28 ]
  ret float %31
}

; Function Attrs: nounwind uwtable
define internal float @calc_replaygain(ptr noundef %0) #0 {
  %2 = alloca ptr, align 8
  %3 = alloca i32, align 4
  %4 = alloca i32, align 4
  %5 = alloca float, align 4
  %6 = alloca i32, align 4
  store ptr %0, ptr %2, align 8, !tbaa !84
  call void @llvm.lifetime.start.p0(i64 4, ptr %3) #9
  store i32 0, ptr %3, align 4, !tbaa !12
  call void @llvm.lifetime.start.p0(i64 4, ptr %4) #9
  store i32 0, ptr %4, align 4, !tbaa !12
  call void @llvm.lifetime.start.p0(i64 4, ptr %5) #9
  call void @llvm.lifetime.start.p0(i64 4, ptr %6) #9
  store i32 0, ptr %6, align 4, !tbaa !12
  br label %7

7:                                                ; preds = %18, %1
  %8 = load i32, ptr %6, align 4, !tbaa !12
  %9 = icmp slt i32 %8, 12000
  br i1 %9, label %10, label %21

10:                                               ; preds = %7
  %11 = load ptr, ptr %2, align 8, !tbaa !84
  %12 = load i32, ptr %6, align 4, !tbaa !12
  %13 = sext i32 %12 to i64
  %14 = getelementptr inbounds i32, ptr %11, i64 %13
  %15 = load i32, ptr %14, align 4, !tbaa !12
  %16 = load i32, ptr %4, align 4, !tbaa !12
  %17 = add i32 %16, %15
  store i32 %17, ptr %4, align 4, !tbaa !12
  br label %18

18:                                               ; preds = %10
  %19 = load i32, ptr %6, align 4, !tbaa !12
  %20 = add nsw i32 %19, 1
  store i32 %20, ptr %6, align 4, !tbaa !12
  br label %7, !llvm.loop !86

21:                                               ; preds = %7
  br label %22

22:                                               ; preds = %38, %21
  %23 = load i32, ptr %6, align 4, !tbaa !12
  %24 = add nsw i32 %23, -1
  store i32 %24, ptr %6, align 4, !tbaa !12
  %25 = icmp ne i32 %23, 0
  br i1 %25, label %26, label %39

26:                                               ; preds = %22
  %27 = load ptr, ptr %2, align 8, !tbaa !84
  %28 = load i32, ptr %6, align 4, !tbaa !12
  %29 = sext i32 %28 to i64
  %30 = getelementptr inbounds i32, ptr %27, i64 %29
  %31 = load i32, ptr %30, align 4, !tbaa !12
  %32 = load i32, ptr %3, align 4, !tbaa !12
  %33 = add i32 %32, %31
  store i32 %33, ptr %3, align 4, !tbaa !12
  %34 = mul i32 %33, 20
  %35 = load i32, ptr %4, align 4, !tbaa !12
  %36 = icmp uge i32 %34, %35
  br i1 %36, label %37, label %38

37:                                               ; preds = %26
  br label %39

38:                                               ; preds = %26
  br label %22, !llvm.loop !87

39:                                               ; preds = %37, %22
  %40 = load i32, ptr %6, align 4, !tbaa !12
  %41 = sitofp i32 %40 to double
  %42 = fdiv nsz double %41, 1.000000e+02
  %43 = fsub nsz double 6.454000e+01, %42
  %44 = fptrunc nsz double %43 to float
  store float %44, ptr %5, align 4, !tbaa !70
  %45 = load float, ptr %5, align 4, !tbaa !70
  %46 = call nsz float @av_clipf_c(float noundef %45, float noundef -2.400000e+01, float noundef 6.400000e+01) #10
  call void @llvm.lifetime.end.p0(i64 4, ptr %6) #9
  call void @llvm.lifetime.end.p0(i64 4, ptr %5) #9
  call void @llvm.lifetime.end.p0(i64 4, ptr %4) #9
  call void @llvm.lifetime.end.p0(i64 4, ptr %3) #9
  ret float %46
}

; Function Attrs: nounwind uwtable
define internal i32 @request_frame(ptr noundef %0) #0 {
  %2 = alloca ptr, align 8
  %3 = alloca ptr, align 8
  %4 = alloca ptr, align 8
  %5 = alloca i32, align 4
  store ptr %0, ptr %2, align 8, !tbaa !20
  call void @llvm.lifetime.start.p0(i64 8, ptr %3) #9
  %6 = load ptr, ptr %2, align 8, !tbaa !20
  %7 = getelementptr inbounds nuw %struct.AVFilterLink, ptr %6, i32 0, i32 0
  %8 = load ptr, ptr %7, align 8, !tbaa !80
  store ptr %8, ptr %3, align 8, !tbaa !4
  call void @llvm.lifetime.start.p0(i64 8, ptr %4) #9
  %9 = load ptr, ptr %3, align 8, !tbaa !4
  %10 = getelementptr inbounds nuw %struct.AVFilterContext, ptr %9, i32 0, i32 9
  %11 = load ptr, ptr %10, align 8, !tbaa !42
  store ptr %11, ptr %4, align 8, !tbaa !43
  call void @llvm.lifetime.start.p0(i64 4, ptr %5) #9
  store i32 0, ptr %5, align 4, !tbaa !12
  %12 = load ptr, ptr %3, align 8, !tbaa !4
  %13 = getelementptr inbounds nuw %struct.AVFilterContext, ptr %12, i32 0, i32 4
  %14 = load ptr, ptr %13, align 8, !tbaa !81
  %15 = getelementptr inbounds ptr, ptr %14, i64 0
  %16 = load ptr, ptr %15, align 8, !tbaa !20
  %17 = call i32 @ff_request_frame(ptr noundef %16)
  store i32 %17, ptr %5, align 4, !tbaa !12
  %18 = load i32, ptr %5, align 4, !tbaa !12
  %19 = icmp eq i32 %18, -541478725
  br i1 %19, label %20, label %37

20:                                               ; preds = %1
  %21 = load ptr, ptr %4, align 8, !tbaa !43
  %22 = getelementptr inbounds nuw %struct.ReplayGainContext, ptr %21, i32 0, i32 1
  %23 = getelementptr inbounds [12000 x i32], ptr %22, i64 0, i64 0
  %24 = call nsz float @calc_replaygain(ptr noundef %23)
  %25 = load ptr, ptr %4, align 8, !tbaa !43
  %26 = getelementptr inbounds nuw %struct.ReplayGainContext, ptr %25, i32 0, i32 3
  store float %24, ptr %26, align 4, !tbaa !82
  %27 = load ptr, ptr %3, align 8, !tbaa !4
  %28 = load ptr, ptr %4, align 8, !tbaa !43
  %29 = getelementptr inbounds nuw %struct.ReplayGainContext, ptr %28, i32 0, i32 3
  %30 = load float, ptr %29, align 4, !tbaa !82
  %31 = fpext nsz float %30 to double
  call void (ptr, i32, ptr, ...) @av_log(ptr noundef %27, i32 noundef 32, ptr noundef @.str.7, double noundef %31)
  %32 = load ptr, ptr %3, align 8, !tbaa !4
  %33 = load ptr, ptr %4, align 8, !tbaa !43
  %34 = getelementptr inbounds nuw %struct.ReplayGainContext, ptr %33, i32 0, i32 2
  %35 = load float, ptr %34, align 8, !tbaa !83
  %36 = fpext nsz float %35 to double
  call void (ptr, i32, ptr, ...) @av_log(ptr noundef %32, i32 noundef 32, ptr noundef @.str.8, double noundef %36)
  br label %37

37:                                               ; preds = %20, %1
  %38 = load i32, ptr %5, align 4, !tbaa !12
  call void @llvm.lifetime.end.p0(i64 4, ptr %5) #9
  call void @llvm.lifetime.end.p0(i64 8, ptr %4) #9
  call void @llvm.lifetime.end.p0(i64 8, ptr %3) #9
  ret i32 %38
}