; Function Attrs: nounwind uwtable
define internal i32 @request_frame(ptr noundef readonly captures(none) %0) #0 {
  %2 = load ptr, ptr %0, align 8, !tbaa !69
  %3 = getelementptr inbounds nuw i8, ptr %2, i64 72
  %4 = load ptr, ptr %3, align 8, !tbaa !38
  %5 = getelementptr inbounds nuw i8, ptr %2, i64 32
  %6 = load ptr, ptr %5, align 8, !tbaa !70
  %7 = load ptr, ptr %6, align 8, !tbaa !36
  %8 = tail call i32 @ff_request_frame(ptr noundef %7) #8
  %9 = icmp eq i32 %8, -541478725
  br i1 %9, label %10, label %34

10:                                               ; preds = %1
  %11 = getelementptr inbounds nuw i8, ptr %4, i64 8
  br label %12

12:                                               ; preds = %12, %10
  %indvars.iv.i = phi i64 [ 0, %10 ], [ %indvars.iv.next.i, %12 ]
  %.01214.i = phi i32 [ 0, %10 ], [ %15, %12 ]
  %13 = getelementptr inbounds nuw i32, ptr %11, i64 %indvars.iv.i
  %14 = load i32, ptr %13, align 4, !tbaa !63
  %15 = add i32 %14, %.01214.i
  %indvars.iv.next.i = add nuw nsw i64 %indvars.iv.i, 1
  %exitcond.not.i = icmp eq i64 %indvars.iv.next.i, 12000
  br i1 %exitcond.not.i, label %.preheader.i, label %12, !llvm.loop !71

.preheader.i:                                     ; preds = %12, %16
  %indvars.iv19.i = phi i64 [ %indvars.iv.next20.i, %16 ], [ 12000, %12 ]
  %.011.i = phi i32 [ %19, %16 ], [ 0, %12 ]
  %.not.i = icmp eq i64 %indvars.iv19.i, 0
  br i1 %.not.i, label %calc_replaygain.exit, label %16

16:                                               ; preds = %.preheader.i
  %indvars.iv.next20.i = add nsw i64 %indvars.iv19.i, -1
  %17 = getelementptr inbounds i32, ptr %11, i64 %indvars.iv.next20.i
  %18 = load i32, ptr %17, align 4, !tbaa !63
  %19 = add i32 %18, %.011.i
  %20 = mul i32 %19, 20
  %.not13.i = icmp ult i32 %20, %15
  br i1 %.not13.i, label %.preheader.i, label %.split.loop.exit.i, !llvm.loop !72

.split.loop.exit.i:                               ; preds = %16
  %21 = trunc nsw i64 %indvars.iv.next20.i to i32
  %22 = sitofp i32 %21 to double
  br label %calc_replaygain.exit

calc_replaygain.exit:                             ; preds = %.preheader.i, %.split.loop.exit.i
  %.lcssa.i = phi double [ %22, %.split.loop.exit.i ], [ -1.000000e+00, %.preheader.i ]
  %23 = fdiv nsz double %.lcssa.i, 1.000000e+02
  %24 = fsub nsz double 6.454000e+01, %23
  %25 = fptrunc nsz double %24 to float
  %26 = fcmp nsz ogt float %25, -2.400000e+01
  %27 = select nsz i1 %26, float %25, float -2.400000e+01
  %28 = fcmp nsz ogt float %27, 6.400000e+01
  %..i.i = select nsz i1 %28, float 6.400000e+01, float %27
  %29 = getelementptr inbounds nuw i8, ptr %4, i64 48012
  store float %..i.i, ptr %29, align 4, !tbaa !73
  %30 = fpext nsz float %..i.i to double
  tail call void (ptr, i32, ptr, ...) @av_log(ptr noundef %2, i32 noundef 32, ptr noundef nonnull @.str.7, double noundef %30) #8
  %31 = getelementptr inbounds nuw i8, ptr %4, i64 48008
  %32 = load float, ptr %31, align 8, !tbaa !74
  %33 = fpext nsz float %32 to double
  tail call void (ptr, i32, ptr, ...) @av_log(ptr noundef %2, i32 noundef 32, ptr noundef nonnull @.str.8, double noundef %33) #8
  br label %34

34:                                               ; preds = %calc_replaygain.exit, %1
  ret i32 %8
}